; Function Attrs: mustprogress nofree norecurse nosync nounwind willreturn memory(readwrite, inaccessiblemem: none) uwtable
define dso_local range(i32 -3, -1) i32 @cm_zlib_inflateUndermine(ptr noundef readonly %0, i32 noundef %1) local_unnamed_addr #0 {
  %3 = icmp eq ptr %0, null
  br i1 %3, label %inflateStateCheck.exit.thread, label %4

4:                                                ; preds = %2
  %5 = getelementptr inbounds nuw i8, ptr %0, i64 64
  %6 = load ptr, ptr %5, align 8
  %7 = icmp eq ptr %6, null
  br i1 %7, label %inflateStateCheck.exit.thread, label %8

8:                                                ; preds = %4
  %9 = getelementptr inbounds nuw i8, ptr %0, i64 72
  %10 = load ptr, ptr %9, align 8
  %11 = icmp eq ptr %10, null
  br i1 %11, label %inflateStateCheck.exit.thread, label %12

12:                                               ; preds = %8
  %13 = getelementptr inbounds nuw i8, ptr %0, i64 56
  %14 = load ptr, ptr %13, align 8
  %15 = icmp eq ptr %14, null
  br i1 %15, label %inflateStateCheck.exit.thread, label %16

16:                                               ; preds = %12
  %17 = load ptr, ptr %14, align 8
  %.not.i = icmp eq ptr %17, %0
  br i1 %.not.i, label %inflateStateCheck.exit, label %inflateStateCheck.exit.thread

inflateStateCheck.exit:                           ; preds = %16
  %18 = getelementptr inbounds nuw i8, ptr %14, i64 8
  %19 = load i32, ptr %18, align 8
  %20 = add i32 %19, -16180
  %or.cond.i = icmp ult i32 %20, 32
  br i1 %or.cond.i, label %21, label %inflateStateCheck.exit.thread

21:                                               ; preds = %inflateStateCheck.exit
  %22 = getelementptr inbounds nuw i8, ptr %14, i64 7144
  store i32 1, ptr %22, align 8
  br label %inflateStateCheck.exit.thread

inflateStateCheck.exit.thread:                    ; preds = %12, %16, %2, %4, %8, %inflateStateCheck.exit, %21
  %.0 = phi i32 [ -3, %21 ], [ -2, %inflateStateCheck.exit ], [ -2, %8 ], [ -2, %4 ], [ -2, %2 ], [ -2, %16 ], [ -2, %12 ]
  ret i32 %.0
}